; Function Attrs: mustprogress nounwind uwtable
define dso_local void @_ZN4llvm21DecodeZeroMoveLowMaskEjRNS_15SmallVectorImplIiEE(i32 noundef %0, ptr noundef nonnull align 8 dereferenceable(16) %1) local_unnamed_addr #0 {
  %3 = tail call noundef i64 @_ZNK4llvm15SmallVectorBaseIjE4sizeEv(ptr noundef nonnull align 8 dereferenceable(16) %1) #4
  %4 = add i64 %3, 1
  %5 = tail call noundef i64 @_ZNK4llvm15SmallVectorBaseIjE8capacityEv(ptr noundef nonnull align 8 dereferenceable(16) %1) #4
  %.not.i.i.i = icmp ugt i64 %4, %5
  br i1 %.not.i.i.i, label %6, label %_ZN4llvm23SmallVectorTemplateBaseIiLb1EE9push_backEi.exit

6:                                                ; preds = %2
  %7 = getelementptr inbounds nuw i8, ptr %1, i64 16
  tail call void @_ZN4llvm15SmallVectorBaseIjE8grow_podEPvmm(ptr noundef nonnull align 8 dereferenceable(16) %1, ptr noundef nonnull %7, i64 noundef %4, i64 noundef 4) #4
  br label %_ZN4llvm23SmallVectorTemplateBaseIiLb1EE9push_backEi.exit

_ZN4llvm23SmallVectorTemplateBaseIiLb1EE9push_backEi.exit: ; preds = %2, %6
  %8 = load ptr, ptr %1, align 8
  %9 = tail call noundef i64 @_ZNK4llvm15SmallVectorBaseIjE4sizeEv(ptr noundef nonnull align 8 dereferenceable(16) %1) #4
  %10 = getelementptr inbounds i32, ptr %8, i64 %9
  store i32 0, ptr %10, align 1
  %11 = tail call noundef i64 @_ZNK4llvm15SmallVectorBaseIjE4sizeEv(ptr noundef nonnull align 8 dereferenceable(16) %1) #4
  %12 = add i64 %11, 1
  tail call void @_ZN4llvm15SmallVectorBaseIjE8set_sizeEm(ptr noundef nonnull align 8 dereferenceable(16) %1, i64 noundef %12) #4
  %13 = add i32 %0, -1
  %14 = zext i32 %13 to i64
  %15 = tail call noundef i64 @_ZNK4llvm15SmallVectorBaseIjE4sizeEv(ptr noundef nonnull align 8 dereferenceable(16) %1) #4
  %16 = add i64 %15, %14
  %17 = tail call noundef i64 @_ZNK4llvm15SmallVectorBaseIjE8capacityEv(ptr noundef nonnull align 8 dereferenceable(16) %1) #4
  %.not.i.i.i2 = icmp ugt i64 %16, %17
  br i1 %.not.i.i.i2, label %18, label %_ZN4llvm23SmallVectorTemplateBaseIiLb1EE28reserveForParamAndGetAddressERim.exit.i

18:                                               ; preds = %_ZN4llvm23SmallVectorTemplateBaseIiLb1EE9push_backEi.exit
  %19 = getelementptr inbounds nuw i8, ptr %1, i64 16
  tail call void @_ZN4llvm15SmallVectorBaseIjE8grow_podEPvmm(ptr noundef nonnull align 8 dereferenceable(16) %1, ptr noundef nonnull %19, i64 noundef %16, i64 noundef 4) #4
  br label %_ZN4llvm23SmallVectorTemplateBaseIiLb1EE28reserveForParamAndGetAddressERim.exit.i

_ZN4llvm23SmallVectorTemplateBaseIiLb1EE28reserveForParamAndGetAddressERim.exit.i: ; preds = %18, %_ZN4llvm23SmallVectorTemplateBaseIiLb1EE9push_backEi.exit
  %20 = load ptr, ptr %1, align 8
  %21 = tail call noundef i64 @_ZNK4llvm15SmallVectorBaseIjE4sizeEv(ptr noundef nonnull align 8 dereferenceable(16) %1) #4
  %22 = icmp eq i32 %13, 0
  br i1 %22, label %_ZN4llvm15SmallVectorImplIiE6appendEmi.exit, label %23

23:                                               ; preds = %_ZN4llvm23SmallVectorTemplateBaseIiLb1EE28reserveForParamAndGetAddressERim.exit.i
  %24 = getelementptr inbounds i32, ptr %20, i64 %21
  %25 = getelementptr inbounds nuw i32, ptr %24, i64 %14
  br label %.lr.ph.i.i.i.i.i.i.i

.lr.ph.i.i.i.i.i.i.i:                             ; preds = %.lr.ph.i.i.i.i.i.i.i, %23
  %.06.i.i.i.i.i.i.i = phi ptr [ %26, %.lr.ph.i.i.i.i.i.i.i ], [ %24, %23 ]
  store i32 -2, ptr %.06.i.i.i.i.i.i.i, align 4
  %26 = getelementptr inbounds nuw i8, ptr %.06.i.i.i.i.i.i.i, i64 4
  %.not.i.i.i.i.i.i.i = icmp eq ptr %26, %25
  br i1 %.not.i.i.i.i.i.i.i, label %_ZN4llvm15SmallVectorImplIiE6appendEmi.exit, label %.lr.ph.i.i.i.i.i.i.i, !llvm.loop !50

_ZN4llvm15SmallVectorImplIiE6appendEmi.exit:      ; preds = %.lr.ph.i.i.i.i.i.i.i, %_ZN4llvm23SmallVectorTemplateBaseIiLb1EE28reserveForParamAndGetAddressERim.exit.i
  %27 = tail call noundef i64 @_ZNK4llvm15SmallVectorBaseIjE4sizeEv(ptr noundef nonnull align 8 dereferenceable(16) %1) #4
  %28 = add i64 %27, %14
  tail call void @_ZN4llvm15SmallVectorBaseIjE8set_sizeEm(ptr noundef nonnull align 8 dereferenceable(16) %1, i64 noundef %28) #4
  ret void
}